target datalayout = "e-m:e-p270:32:32-p271:32:32-p272:64:64-i64:64-i128:128-f80:128-n8:16:32:64-S128"
target triple = "x86_64-pc-linux-gnu"

%struct.color_t = type { i16, i16, i16 }
%struct._color_filter = type { ptr, ptr, %struct.color_t, %struct.color_t, i8, ptr }
%struct.write_filter_data = type { ptr, i8 }

@.str.1 = private unnamed_addr constant [32 x i8] c"___conversation_color_filter___\00", align 1
@.str.19 = private unnamed_addr constant [31 x i8] c"%s@%s@%s@[%u,%u,%u][%u,%u,%u]\0A\00", align 1
@.str.20 = private unnamed_addr constant [2 x i8] c"!\00", align 1
@.str.21 = private unnamed_addr constant [1 x i8] zeroinitializer, align 1

; Function Attrs: null_pointer_is_valid sspstrong uwtable
define internal void @write_filter(ptr noundef %0, ptr noundef %1) #0 {
  %3 = alloca ptr, align 8
  %4 = alloca ptr, align 8
  %5 = alloca ptr, align 8
  %6 = alloca ptr, align 8
  %7 = alloca ptr, align 8
  store ptr %0, ptr %3, align 8
  store ptr %1, ptr %4, align 8
  call void @llvm.lifetime.start.p0(i64 8, ptr %5) #13
  %8 = load ptr, ptr %4, align 8
  store ptr %8, ptr %5, align 8
  call void @llvm.lifetime.start.p0(i64 8, ptr %6) #13
  %9 = load ptr, ptr %3, align 8
  store ptr %9, ptr %6, align 8
  call void @llvm.lifetime.start.p0(i64 8, ptr %7) #13
  %10 = load ptr, ptr %5, align 8
  %11 = getelementptr inbounds nuw %struct.write_filter_data, ptr %10, i32 0, i32 0
  %12 = load ptr, ptr %11, align 8
  store ptr %12, ptr %7, align 8
  %13 = load ptr, ptr %5, align 8
  %14 = getelementptr inbounds nuw %struct.write_filter_data, ptr %13, i32 0, i32 1
  %15 = load i8, ptr %14, align 8, !range !6, !noundef !7
  %16 = trunc i8 %15 to i1
  br i1 %16, label %67, label %17

17:                                               ; preds = %2
  %18 = load ptr, ptr %6, align 8
  %19 = getelementptr inbounds nuw %struct._color_filter, ptr %18, i32 0, i32 0
  %20 = load ptr, ptr %19, align 8
  %21 = call ptr @strstr(ptr noundef %20, ptr noundef @.str.1) #16
  %22 = icmp eq ptr %21, null
  br i1 %22, label %23, label %67

23:                                               ; preds = %17
  %24 = load ptr, ptr %7, align 8
  %25 = load ptr, ptr %6, align 8
  %26 = getelementptr inbounds nuw %struct._color_filter, ptr %25, i32 0, i32 4
  %27 = load i8, ptr %26, align 4, !range !6, !noundef !7
  %28 = trunc i8 %27 to i1
  %29 = select i1 %28, ptr @.str.20, ptr @.str.21
  %30 = load ptr, ptr %6, align 8
  %31 = getelementptr inbounds nuw %struct._color_filter, ptr %30, i32 0, i32 0
  %32 = load ptr, ptr %31, align 8
  %33 = load ptr, ptr %6, align 8
  %34 = getelementptr inbounds nuw %struct._color_filter, ptr %33, i32 0, i32 1
  %35 = load ptr, ptr %34, align 8
  %36 = load ptr, ptr %6, align 8
  %37 = getelementptr inbounds nuw %struct._color_filter, ptr %36, i32 0, i32 2
  %38 = getelementptr inbounds nuw %struct.color_t, ptr %37, i32 0, i32 0
  %39 = load i16, ptr %38, align 8
  %40 = zext i16 %39 to i32
  %41 = load ptr, ptr %6, align 8
  %42 = getelementptr inbounds nuw %struct._color_filter, ptr %41, i32 0, i32 2
  %43 = getelementptr inbounds nuw %struct.color_t, ptr %42, i32 0, i32 1
  %44 = load i16, ptr %43, align 2
  %45 = zext i16 %44 to i32
  %46 = load ptr, ptr %6, align 8
  %47 = getelementptr inbounds nuw %struct._color_filter, ptr %46, i32 0, i32 2
  %48 = getelementptr inbounds nuw %struct.color_t, ptr %47, i32 0, i32 2
  %49 = load i16, ptr %48, align 4
  %50 = zext i16 %49 to i32
  %51 = load ptr, ptr %6, align 8
  %52 = getelementptr inbounds nuw %struct._color_filter, ptr %51, i32 0, i32 3
  %53 = getelementptr inbounds nuw %struct.color_t, ptr %52, i32 0, i32 0
  %54 = load i16, ptr %53, align 2
  %55 = zext i16 %54 to i32
  %56 = load ptr, ptr %6, align 8
  %57 = getelementptr inbounds nuw %struct._color_filter, ptr %56, i32 0, i32 3
  %58 = getelementptr inbounds nuw %struct.color_t, ptr %57, i32 0, i32 1
  %59 = load i16, ptr %58, align 2
  %60 = zext i16 %59 to i32
  %61 = load ptr, ptr %6, align 8
  %62 = getelementptr inbounds nuw %struct._color_filter, ptr %61, i32 0, i32 3
  %63 = getelementptr inbounds nuw %struct.color_t, ptr %62, i32 0, i32 2
  %64 = load i16, ptr %63, align 2
  %65 = zext i16 %64 to i32
  %66 = call i32 (ptr, i32, ptr, ...) @__fprintf_chk(ptr noundef %24, i32 noundef 2, ptr noundef @.str.19, ptr noundef %29, ptr noundef %32, ptr noundef %35, i32 noundef %40, i32 noundef %45, i32 noundef %50, i32 noundef %55, i32 noundef %60, i32 noundef %65)
  br label %67

67:                                               ; preds = %23, %17, %2
  call void @llvm.lifetime.end.p0(i64 8, ptr %7) #13
  call void @llvm.lifetime.end.p0(i64 8, ptr %6) #13
  call void @llvm.lifetime.end.p0(i64 8, ptr %5) #13
  ret void
}