; Function Attrs: null_pointer_is_valid sspstrong uwtable
define internal void @write_filter(ptr noundef readonly captures(none) %0, ptr noundef readonly captures(none) %1) #0 {
  %3 = load ptr, ptr %1, align 8
  %4 = getelementptr inbounds nuw i8, ptr %1, i64 8
  %5 = load i8, ptr %4, align 8, !range !6, !noundef !7
  %6 = trunc nuw i8 %5 to i1
  br i1 %6, label %37, label %7

7:                                                ; preds = %2
  %8 = load ptr, ptr %0, align 8
  %9 = tail call ptr @strstr(ptr noundef %8, ptr noundef nonnull dereferenceable(1) @.str.1) #13
  %10 = icmp eq ptr %9, null
  br i1 %10, label %11, label %37

11:                                               ; preds = %7
  %12 = getelementptr inbounds nuw i8, ptr %0, i64 28
  %13 = load i8, ptr %12, align 4, !range !6, !noundef !7
  %14 = trunc nuw i8 %13 to i1
  %15 = select i1 %14, ptr @.str.20, ptr @.str.21
  %16 = getelementptr inbounds nuw i8, ptr %0, i64 8
  %17 = load ptr, ptr %16, align 8
  %18 = getelementptr inbounds nuw i8, ptr %0, i64 16
  %19 = load i16, ptr %18, align 8
  %20 = zext i16 %19 to i32
  %21 = getelementptr inbounds nuw i8, ptr %0, i64 18
  %22 = load i16, ptr %21, align 2
  %23 = zext i16 %22 to i32
  %24 = getelementptr inbounds nuw i8, ptr %0, i64 20
  %25 = load i16, ptr %24, align 4
  %26 = zext i16 %25 to i32
  %27 = getelementptr inbounds nuw i8, ptr %0, i64 22
  %28 = load i16, ptr %27, align 2
  %29 = zext i16 %28 to i32
  %30 = getelementptr inbounds nuw i8, ptr %0, i64 24
  %31 = load i16, ptr %30, align 2
  %32 = zext i16 %31 to i32
  %33 = getelementptr inbounds nuw i8, ptr %0, i64 26
  %34 = load i16, ptr %33, align 2
  %35 = zext i16 %34 to i32
  %36 = tail call i32 (ptr, i32, ptr, ...) @__fprintf_chk(ptr noundef %3, i32 noundef 2, ptr noundef nonnull @.str.19, ptr noundef nonnull %15, ptr noundef %8, ptr noundef %17, i32 noundef %20, i32 noundef %23, i32 noundef %26, i32 noundef %29, i32 noundef %32, i32 noundef %35)
  br label %37

37:                                               ; preds = %11, %7, %2
  ret void
}